target datalayout = "e-m:e-p270:32:32-p271:32:32-p272:64:64-i64:64-i128:128-f80:128-n8:16:32:64-S128"
target triple = "x86_64-pc-linux-gnu"

%struct._value_string_ext = type { ptr, i32, i32, ptr, ptr }
%struct._wmem_tree_key_t = type { i32, ptr }
%struct.nstime_t = type { i64, i32 }
%struct._packet_info = type { ptr, ptr, i32, i32, %struct.nstime_t, %struct.nstime_t, %struct.nstime_t, i8, ptr, ptr, ptr, ptr, %struct._address, %struct._address, %struct._address, %struct._address, %struct._address, %struct._address, i32, ptr, i8, [3 x i8], %struct.anon, i32, i32, i32, i32, ptr, i8, ptr, ptr, i16, i16, i32, i32, i16, i32, i32, ptr, ptr, ptr, i8, i8, i16, i16, i16, i32, i16, i16, ptr, ptr, ptr, ptr, ptr, i32, i32 }
%struct._address = type { i32, i32, ptr, ptr }
%struct.anon = type { i8, [3 x i8] }
%struct._frame_data = type <{ i32, i32, i32, i32, i32, [4 x i8], i64, ptr, ptr, ptr, i8, i16, [5 x i8], %struct.nstime_t, %struct.nstime_t, i32, i32 }>
%struct._bluetooth_data_t = type { i32, i32, ptr, ptr, ptr, ptr, ptr, ptr, ptr, ptr, ptr, ptr, ptr, i32, %union.anon }
%union.anon = type { ptr }
%struct._bluetooth_hci_summary_tap_t = type { i32, i32, i16, i8, i8, i8, i8, i8, i8, ptr, i32 }
%struct._remote_bdaddr_t = type { i32, i32, i16, [6 x i8] }
%struct._chandle_session_t = type { i32, i32, i32 }
%struct._connection_mode_t = type { i32, i32 }

@hf_bthci_evt_connection_handle = internal global i32 0, align 4
@hf_bthci_evt_status = internal global i32 0, align 4
@bthci_cmd_status_vals_ext = external global %struct._value_string_ext, align 8
@hf_bthci_evt_bd_addr = internal global i32 0, align 4
@hf_bthci_evt_link_type = internal global i32 0, align 4
@hf_bthci_evt_encryption_mode = internal global i32 0, align 4
@.str.1819 = private unnamed_addr constant [15 x i8] c"Unknown 0x%02x\00", align 1
@bluetooth_hci_summary_tap = external global i32, align 4
@bluetooth_max_disconnect_in_frame = external global i32, align 4

; Function Attrs: alwaysinline nounwind
define internal ptr @memcpy.inline(ptr noalias %0, ptr noalias %1, i64 %2) #9 {
  %4 = alloca ptr, align 8
  %5 = alloca ptr, align 8
  %6 = alloca i64, align 8
  store ptr %0, ptr %4, align 8
  store ptr %1, ptr %5, align 8
  store i64 %2, ptr %6, align 8
  %7 = load ptr, ptr %4, align 8
  %8 = load ptr, ptr %5, align 8
  %9 = load i64, ptr %6, align 8
  %10 = load ptr, ptr %4, align 8
  %11 = call i64 @llvm.objectsize.i64.p0(ptr %10, i1 false, i1 true, i1 true)
  %12 = call ptr @__memcpy_chk(ptr noundef %7, ptr noundef %8, i64 noundef %9, i64 noundef %11) #11
  ret ptr %12
}

; Function Attrs: null_pointer_is_valid sspstrong uwtable
define internal void @send_hci_summary_status_tap(i8 noundef zeroext %0, ptr noundef %1, ptr noundef %2) #1 {
  %4 = alloca i8, align 1
  %5 = alloca ptr, align 8
  %6 = alloca ptr, align 8
  %7 = alloca ptr, align 8
  store i8 %0, ptr %4, align 1
  store ptr %1, ptr %5, align 8
  store ptr %2, ptr %6, align 8
  %8 = load i32, ptr @bluetooth_hci_summary_tap, align 4
  %9 = call zeroext i1 @have_tap_listener(i32 noundef %8)
  br i1 %9, label %10, label %47

10:                                               ; preds = %3
  call void @llvm.lifetime.start.p0(i64 8, ptr %7) #11
  %11 = load ptr, ptr %5, align 8
  %12 = getelementptr inbounds nuw %struct._packet_info, ptr %11, i32 0, i32 51
  %13 = load ptr, ptr %12, align 8
  %14 = call noalias ptr @wmem_alloc(ptr noundef %13, i64 noundef 32) #13
  store ptr %14, ptr %7, align 8
  %15 = load ptr, ptr %6, align 8
  %16 = getelementptr inbounds nuw %struct._bluetooth_data_t, ptr %15, i32 0, i32 0
  %17 = load i32, ptr %16, align 8
  %18 = load ptr, ptr %7, align 8
  %19 = getelementptr inbounds nuw %struct._bluetooth_hci_summary_tap_t, ptr %18, i32 0, i32 0
  store i32 %17, ptr %19, align 8
  %20 = load ptr, ptr %6, align 8
  %21 = getelementptr inbounds nuw %struct._bluetooth_data_t, ptr %20, i32 0, i32 1
  %22 = load i32, ptr %21, align 4
  %23 = load ptr, ptr %7, align 8
  %24 = getelementptr inbounds nuw %struct._bluetooth_hci_summary_tap_t, ptr %23, i32 0, i32 1
  store i32 %22, ptr %24, align 4
  %25 = load ptr, ptr %7, align 8
  %26 = getelementptr inbounds nuw %struct._bluetooth_hci_summary_tap_t, ptr %25, i32 0, i32 10
  store i32 7, ptr %26, align 8
  %27 = load i8, ptr %4, align 1
  %28 = load ptr, ptr %7, align 8
  %29 = getelementptr inbounds nuw %struct._bluetooth_hci_summary_tap_t, ptr %28, i32 0, i32 6
  store i8 %27, ptr %29, align 1
  %30 = load i8, ptr %4, align 1
  %31 = zext i8 %30 to i32
  %32 = call ptr @try_val_to_str_ext(i32 noundef %31, ptr noundef @bthci_cmd_status_vals_ext)
  %33 = icmp ne ptr %32, null
  br i1 %33, label %34, label %40

34:                                               ; preds = %10
  %35 = load i8, ptr %4, align 1
  %36 = zext i8 %35 to i32
  %37 = call ptr @val_to_str_ext(i32 noundef %36, ptr noundef @bthci_cmd_status_vals_ext, ptr noundef @.str.1819)
  %38 = load ptr, ptr %7, align 8
  %39 = getelementptr inbounds nuw %struct._bluetooth_hci_summary_tap_t, ptr %38, i32 0, i32 9
  store ptr %37, ptr %39, align 8
  br label %43

40:                                               ; preds = %10
  %41 = load ptr, ptr %7, align 8
  %42 = getelementptr inbounds nuw %struct._bluetooth_hci_summary_tap_t, ptr %41, i32 0, i32 9
  store ptr null, ptr %42, align 8
  br label %43

43:                                               ; preds = %40, %34
  %44 = load i32, ptr @bluetooth_hci_summary_tap, align 4
  %45 = load ptr, ptr %5, align 8
  %46 = load ptr, ptr %7, align 8
  call void @tap_queue_packet(i32 noundef %44, ptr noundef %45, ptr noundef %46)
  call void @llvm.lifetime.end.p0(i64 8, ptr %7) #11
  br label %47

47:                                               ; preds = %43, %3
  ret void
}

; Function Attrs: null_pointer_is_valid sspstrong uwtable
define internal i32 @dissect_bthci_evt_connect_complete(ptr noundef %0, i32 noundef %1, ptr noundef %2, ptr noundef %3, ptr noundef %4) #1 {
  %6 = alloca ptr, align 8
  %7 = alloca i32, align 4
  %8 = alloca ptr, align 8
  %9 = alloca ptr, align 8
  %10 = alloca ptr, align 8
  %11 = alloca i32, align 4
  %12 = alloca [6 x i8], align 1
  %13 = alloca i8, align 1
  %14 = alloca [5 x %struct._wmem_tree_key_t], align 16
  %15 = alloca i32, align 4
  %16 = alloca i32, align 4
  %17 = alloca i32, align 4
  %18 = alloca i32, align 4
  %19 = alloca ptr, align 8
  %20 = alloca ptr, align 8
  %21 = alloca ptr, align 8
  store ptr %0, ptr %6, align 8
  store i32 %1, ptr %7, align 4
  store ptr %2, ptr %8, align 8
  store ptr %3, ptr %9, align 8
  store ptr %4, ptr %10, align 8
  call void @llvm.lifetime.start.p0(i64 4, ptr %11) #11
  call void @llvm.lifetime.start.p0(i64 6, ptr %12) #11
  call void @llvm.lifetime.start.p0(i64 1, ptr %13) #11
  %22 = load ptr, ptr %9, align 8
  %23 = load i32, ptr @hf_bthci_evt_status, align 4
  %24 = load ptr, ptr %6, align 8
  %25 = load i32, ptr %7, align 4
  %26 = call ptr @proto_tree_add_item(ptr noundef %22, i32 noundef %23, ptr noundef %24, i32 noundef %25, i32 noundef 1, i32 noundef -2147483648)
  %27 = load ptr, ptr %6, align 8
  %28 = load i32, ptr %7, align 4
  %29 = call zeroext i8 @tvb_get_uint8(ptr noundef %27, i32 noundef %28)
  store i8 %29, ptr %13, align 1
  %30 = load i8, ptr %13, align 1
  %31 = load ptr, ptr %8, align 8
  %32 = load ptr, ptr %10, align 8
  call void @send_hci_summary_status_tap(i8 noundef zeroext %30, ptr noundef %31, ptr noundef %32)
  %33 = load i32, ptr %7, align 4
  %34 = add i32 %33, 1
  store i32 %34, ptr %7, align 4
  %35 = load ptr, ptr %6, align 8
  %36 = load i32, ptr %7, align 4
  %37 = call zeroext i16 @tvb_get_letohs(ptr noundef %35, i32 noundef %36)
  %38 = zext i16 %37 to i32
  %39 = and i32 %38, 4095
  store i32 %39, ptr %11, align 4
  %40 = load ptr, ptr %9, align 8
  %41 = load i32, ptr @hf_bthci_evt_connection_handle, align 4
  %42 = load ptr, ptr %6, align 8
  %43 = load i32, ptr %7, align 4
  %44 = call ptr @proto_tree_add_item(ptr noundef %40, i32 noundef %41, ptr noundef %42, i32 noundef %43, i32 noundef 2, i32 noundef -2147483648)
  %45 = load i32, ptr %7, align 4
  %46 = add i32 %45, 2
  store i32 %46, ptr %7, align 4
  %47 = load i32, ptr @hf_bthci_evt_bd_addr, align 4
  %48 = load ptr, ptr %8, align 8
  %49 = load ptr, ptr %9, align 8
  %50 = load ptr, ptr %6, align 8
  %51 = load i32, ptr %7, align 4
  %52 = load ptr, ptr %10, align 8
  %53 = getelementptr inbounds nuw %struct._bluetooth_data_t, ptr %52, i32 0, i32 0
  %54 = load i32, ptr %53, align 8
  %55 = load ptr, ptr %10, align 8
  %56 = getelementptr inbounds nuw %struct._bluetooth_data_t, ptr %55, i32 0, i32 1
  %57 = load i32, ptr %56, align 4
  %58 = getelementptr inbounds [6 x i8], ptr %12, i64 0, i64 0
  %59 = call i32 @dissect_bd_addr(i32 noundef %47, ptr noundef %48, ptr noundef %49, ptr noundef %50, i32 noundef %51, i1 noundef zeroext false, i32 noundef %54, i32 noundef %57, ptr noundef %58)
  store i32 %59, ptr %7, align 4
  %60 = load ptr, ptr %8, align 8
  %61 = getelementptr inbounds nuw %struct._packet_info, ptr %60, i32 0, i32 8
  %62 = load ptr, ptr %61, align 8
  %63 = getelementptr inbounds nuw %struct._frame_data, ptr %62, i32 0, i32 11
  %64 = load i16, ptr %63, align 1
  %65 = lshr i16 %64, 3
  %66 = and i16 %65, 1
  %67 = zext i16 %66 to i32
  %68 = icmp ne i32 %67, 0
  br i1 %68, label %157, label %69

69:                                               ; preds = %5
  %70 = load i8, ptr %13, align 1
  %71 = zext i8 %70 to i32
  %72 = icmp eq i32 %71, 0
  br i1 %72, label %73, label %157

73:                                               ; preds = %69
  call void @llvm.lifetime.start.p0(i64 80, ptr %14) #11
  call void @llvm.lifetime.start.p0(i64 4, ptr %15) #11
  call void @llvm.lifetime.start.p0(i64 4, ptr %16) #11
  call void @llvm.lifetime.start.p0(i64 4, ptr %17) #11
  call void @llvm.lifetime.start.p0(i64 4, ptr %18) #11
  call void @llvm.lifetime.start.p0(i64 8, ptr %19) #11
  call void @llvm.lifetime.start.p0(i64 8, ptr %20) #11
  call void @llvm.lifetime.start.p0(i64 8, ptr %21) #11
  %74 = load ptr, ptr %10, align 8
  %75 = getelementptr inbounds nuw %struct._bluetooth_data_t, ptr %74, i32 0, i32 0
  %76 = load i32, ptr %75, align 8
  store i32 %76, ptr %15, align 4
  %77 = load ptr, ptr %10, align 8
  %78 = getelementptr inbounds nuw %struct._bluetooth_data_t, ptr %77, i32 0, i32 1
  %79 = load i32, ptr %78, align 4
  store i32 %79, ptr %16, align 4
  %80 = load i32, ptr %11, align 4
  store i32 %80, ptr %17, align 4
  %81 = load ptr, ptr %8, align 8
  %82 = getelementptr inbounds nuw %struct._packet_info, ptr %81, i32 0, i32 3
  %83 = load i32, ptr %82, align 4
  store i32 %83, ptr %18, align 4
  %84 = getelementptr [5 x %struct._wmem_tree_key_t], ptr %14, i64 0, i64 0
  %85 = getelementptr inbounds nuw %struct._wmem_tree_key_t, ptr %84, i32 0, i32 0
  store i32 1, ptr %85, align 16
  %86 = getelementptr [5 x %struct._wmem_tree_key_t], ptr %14, i64 0, i64 0
  %87 = getelementptr inbounds nuw %struct._wmem_tree_key_t, ptr %86, i32 0, i32 1
  store ptr %15, ptr %87, align 8
  %88 = getelementptr [5 x %struct._wmem_tree_key_t], ptr %14, i64 0, i64 1
  %89 = getelementptr inbounds nuw %struct._wmem_tree_key_t, ptr %88, i32 0, i32 0
  store i32 1, ptr %89, align 16
  %90 = getelementptr [5 x %struct._wmem_tree_key_t], ptr %14, i64 0, i64 1
  %91 = getelementptr inbounds nuw %struct._wmem_tree_key_t, ptr %90, i32 0, i32 1
  store ptr %16, ptr %91, align 8
  %92 = getelementptr [5 x %struct._wmem_tree_key_t], ptr %14, i64 0, i64 2
  %93 = getelementptr inbounds nuw %struct._wmem_tree_key_t, ptr %92, i32 0, i32 0
  store i32 1, ptr %93, align 16
  %94 = getelementptr [5 x %struct._wmem_tree_key_t], ptr %14, i64 0, i64 2
  %95 = getelementptr inbounds nuw %struct._wmem_tree_key_t, ptr %94, i32 0, i32 1
  store ptr %17, ptr %95, align 8
  %96 = getelementptr [5 x %struct._wmem_tree_key_t], ptr %14, i64 0, i64 3
  %97 = getelementptr inbounds nuw %struct._wmem_tree_key_t, ptr %96, i32 0, i32 0
  store i32 1, ptr %97, align 16
  %98 = getelementptr [5 x %struct._wmem_tree_key_t], ptr %14, i64 0, i64 3
  %99 = getelementptr inbounds nuw %struct._wmem_tree_key_t, ptr %98, i32 0, i32 1
  store ptr %18, ptr %99, align 8
  %100 = getelementptr [5 x %struct._wmem_tree_key_t], ptr %14, i64 0, i64 4
  %101 = getelementptr inbounds nuw %struct._wmem_tree_key_t, ptr %100, i32 0, i32 0
  store i32 0, ptr %101, align 16
  %102 = getelementptr [5 x %struct._wmem_tree_key_t], ptr %14, i64 0, i64 4
  %103 = getelementptr inbounds nuw %struct._wmem_tree_key_t, ptr %102, i32 0, i32 1
  store ptr null, ptr %103, align 8
  %104 = call ptr @wmem_file_scope()
  %105 = call noalias ptr @wmem_alloc(ptr noundef %104, i64 noundef 16) #13
  store ptr %105, ptr %19, align 8
  %106 = load ptr, ptr %10, align 8
  %107 = getelementptr inbounds nuw %struct._bluetooth_data_t, ptr %106, i32 0, i32 0
  %108 = load i32, ptr %107, align 8
  %109 = load ptr, ptr %19, align 8
  %110 = getelementptr inbounds nuw %struct._remote_bdaddr_t, ptr %109, i32 0, i32 0
  store i32 %108, ptr %110, align 4
  %111 = load ptr, ptr %10, align 8
  %112 = getelementptr inbounds nuw %struct._bluetooth_data_t, ptr %111, i32 0, i32 1
  %113 = load i32, ptr %112, align 4
  %114 = load ptr, ptr %19, align 8
  %115 = getelementptr inbounds nuw %struct._remote_bdaddr_t, ptr %114, i32 0, i32 1
  store i32 %113, ptr %115, align 4
  %116 = load i32, ptr %11, align 4
  %117 = trunc i32 %116 to i16
  %118 = load ptr, ptr %19, align 8
  %119 = getelementptr inbounds nuw %struct._remote_bdaddr_t, ptr %118, i32 0, i32 2
  store i16 %117, ptr %119, align 4
  %120 = load ptr, ptr %19, align 8
  %121 = getelementptr inbounds nuw %struct._remote_bdaddr_t, ptr %120, i32 0, i32 3
  %122 = getelementptr inbounds [6 x i8], ptr %121, i64 0, i64 0
  %123 = getelementptr inbounds [6 x i8], ptr %12, i64 0, i64 0
  %124 = call ptr @memcpy.inline(ptr noundef %122, ptr noundef %123, i64 noundef 6) #11
  %125 = load ptr, ptr %10, align 8
  %126 = getelementptr inbounds nuw %struct._bluetooth_data_t, ptr %125, i32 0, i32 4
  %127 = load ptr, ptr %126, align 8
  %128 = getelementptr inbounds [5 x %struct._wmem_tree_key_t], ptr %14, i64 0, i64 0
  %129 = load ptr, ptr %19, align 8
  call void @wmem_tree_insert32_array(ptr noundef %127, ptr noundef %128, ptr noundef %129)
  %130 = call ptr @wmem_file_scope()
  %131 = call noalias ptr @wmem_alloc(ptr noundef %130, i64 noundef 12) #13
  store ptr %131, ptr %20, align 8
  %132 = load i32, ptr %18, align 4
  %133 = load ptr, ptr %20, align 8
  %134 = getelementptr inbounds nuw %struct._chandle_session_t, ptr %133, i32 0, i32 0
  store i32 %132, ptr %134, align 4
  %135 = load i32, ptr @bluetooth_max_disconnect_in_frame, align 4
  %136 = load ptr, ptr %20, align 8
  %137 = getelementptr inbounds nuw %struct._chandle_session_t, ptr %136, i32 0, i32 1
  store i32 %135, ptr %137, align 4
  %138 = load ptr, ptr %20, align 8
  %139 = getelementptr inbounds nuw %struct._chandle_session_t, ptr %138, i32 0, i32 2
  store i32 1, ptr %139, align 4
  %140 = load ptr, ptr %10, align 8
  %141 = getelementptr inbounds nuw %struct._bluetooth_data_t, ptr %140, i32 0, i32 3
  %142 = load ptr, ptr %141, align 8
  %143 = getelementptr inbounds [5 x %struct._wmem_tree_key_t], ptr %14, i64 0, i64 0
  %144 = load ptr, ptr %20, align 8
  call void @wmem_tree_insert32_array(ptr noundef %142, ptr noundef %143, ptr noundef %144)
  %145 = call ptr @wmem_file_scope()
  %146 = call noalias ptr @wmem_alloc(ptr noundef %145, i64 noundef 8) #13
  store ptr %146, ptr %21, align 8
  %147 = load ptr, ptr %21, align 8
  %148 = getelementptr inbounds nuw %struct._connection_mode_t, ptr %147, i32 0, i32 0
  store i32 0, ptr %148, align 4
  %149 = load i32, ptr %18, align 4
  %150 = load ptr, ptr %21, align 8
  %151 = getelementptr inbounds nuw %struct._connection_mode_t, ptr %150, i32 0, i32 1
  store i32 %149, ptr %151, align 4
  %152 = load ptr, ptr %10, align 8
  %153 = getelementptr inbounds nuw %struct._bluetooth_data_t, ptr %152, i32 0, i32 5
  %154 = load ptr, ptr %153, align 8
  %155 = getelementptr inbounds [5 x %struct._wmem_tree_key_t], ptr %14, i64 0, i64 0
  %156 = load ptr, ptr %21, align 8
  call void @wmem_tree_insert32_array(ptr noundef %154, ptr noundef %155, ptr noundef %156)
  call void @llvm.lifetime.end.p0(i64 8, ptr %21) #11
  call void @llvm.lifetime.end.p0(i64 8, ptr %20) #11
  call void @llvm.lifetime.end.p0(i64 8, ptr %19) #11
  call void @llvm.lifetime.end.p0(i64 4, ptr %18) #11
  call void @llvm.lifetime.end.p0(i64 4, ptr %17) #11
  call void @llvm.lifetime.end.p0(i64 4, ptr %16) #11
  call void @llvm.lifetime.end.p0(i64 4, ptr %15) #11
  call void @llvm.lifetime.end.p0(i64 80, ptr %14) #11
  br label %157

157:                                              ; preds = %73, %69, %5
  %158 = load ptr, ptr %9, align 8
  %159 = load i32, ptr @hf_bthci_evt_link_type, align 4
  %160 = load ptr, ptr %6, align 8
  %161 = load i32, ptr %7, align 4
  %162 = call ptr @proto_tree_add_item(ptr noundef %158, i32 noundef %159, ptr noundef %160, i32 noundef %161, i32 noundef 1, i32 noundef -2147483648)
  %163 = load i32, ptr %7, align 4
  %164 = add i32 %163, 1
  store i32 %164, ptr %7, align 4
  %165 = load ptr, ptr %9, align 8
  %166 = load i32, ptr @hf_bthci_evt_encryption_mode, align 4
  %167 = load ptr, ptr %6, align 8
  %168 = load i32, ptr %7, align 4
  %169 = call ptr @proto_tree_add_item(ptr noundef %165, i32 noundef %166, ptr noundef %167, i32 noundef %168, i32 noundef 1, i32 noundef -2147483648)
  %170 = load i32, ptr %7, align 4
  %171 = add i32 %170, 1
  store i32 %171, ptr %7, align 4
  %172 = load i32, ptr %7, align 4
  call void @llvm.lifetime.end.p0(i64 1, ptr %13) #11
  call void @llvm.lifetime.end.p0(i64 6, ptr %12) #11
  call void @llvm.lifetime.end.p0(i64 4, ptr %11) #11
  ret i32 %172
}