; Function Attrs: null_pointer_is_valid sspstrong uwtable
define internal fastcc i32 @dissect_bthci_evt_connect_complete(ptr noundef %0, ptr noundef %1, ptr noundef %2, ptr noundef nonnull readonly captures(none) %3) unnamed_addr #1 {
  %5 = alloca [6 x i8], align 1
  %6 = alloca [5 x %struct._wmem_tree_key_t], align 16
  %7 = alloca i32, align 4
  %8 = alloca i32, align 4
  %9 = alloca i32, align 4
  %10 = alloca i32, align 4
  call void @llvm.lifetime.start.p0(i64 6, ptr nonnull %5) #9
  %11 = load i32, ptr @hf_bthci_evt_status, align 4
  %12 = tail call ptr @proto_tree_add_item(ptr noundef %2, i32 noundef %11, ptr noundef %0, i32 noundef 2, i32 noundef 1, i32 noundef -2147483648)
  %13 = tail call zeroext i8 @tvb_get_uint8(ptr noundef %0, i32 noundef 2)
  %14 = load i32, ptr @bluetooth_hci_summary_tap, align 4
  %15 = tail call zeroext i1 @have_tap_listener(i32 noundef %14)
  br i1 %15, label %16, label %send_hci_summary_status_tap.exit

16:                                               ; preds = %4
  %17 = getelementptr inbounds nuw i8, ptr %1, i64 408
  %18 = load ptr, ptr %17, align 8
  %19 = tail call noalias dereferenceable_or_null(32) ptr @wmem_alloc(ptr noundef %18, i64 noundef 32) #11
  %20 = load i32, ptr %3, align 8
  store i32 %20, ptr %19, align 8
  %21 = getelementptr inbounds nuw i8, ptr %3, i64 4
  %22 = load i32, ptr %21, align 4
  %23 = getelementptr inbounds nuw i8, ptr %19, i64 4
  store i32 %22, ptr %23, align 4
  %24 = getelementptr inbounds nuw i8, ptr %19, i64 24
  store i32 7, ptr %24, align 8
  %25 = getelementptr inbounds nuw i8, ptr %19, i64 13
  store i8 %13, ptr %25, align 1
  %26 = zext i8 %13 to i32
  %27 = tail call ptr @try_val_to_str_ext(i32 noundef %26, ptr noundef nonnull @bthci_cmd_status_vals_ext)
  %.not.i = icmp eq ptr %27, null
  br i1 %.not.i, label %30, label %28

28:                                               ; preds = %16
  %29 = tail call ptr @val_to_str_ext(i32 noundef %26, ptr noundef nonnull @bthci_cmd_status_vals_ext, ptr noundef nonnull @.str.1819)
  br label %30

30:                                               ; preds = %28, %16
  %.sink.i = phi ptr [ %29, %28 ], [ null, %16 ]
  %31 = getelementptr inbounds nuw i8, ptr %19, i64 16
  store ptr %.sink.i, ptr %31, align 8
  %32 = load i32, ptr @bluetooth_hci_summary_tap, align 4
  tail call void @tap_queue_packet(i32 noundef %32, ptr noundef %1, ptr noundef %19)
  br label %send_hci_summary_status_tap.exit

send_hci_summary_status_tap.exit:                 ; preds = %4, %30
  %33 = tail call zeroext i16 @tvb_get_letohs(ptr noundef %0, i32 noundef 3)
  %34 = load i32, ptr @hf_bthci_evt_connection_handle, align 4
  %35 = tail call ptr @proto_tree_add_item(ptr noundef %2, i32 noundef %34, ptr noundef %0, i32 noundef 3, i32 noundef 2, i32 noundef -2147483648)
  %36 = load i32, ptr @hf_bthci_evt_bd_addr, align 4
  %37 = load i32, ptr %3, align 8
  %38 = getelementptr inbounds nuw i8, ptr %3, i64 4
  %39 = load i32, ptr %38, align 4
  %40 = call i32 @dissect_bd_addr(i32 noundef %36, ptr noundef %1, ptr noundef %2, ptr noundef %0, i32 noundef 5, i1 noundef zeroext false, i32 noundef %37, i32 noundef %39, ptr noundef nonnull %5)
  %41 = getelementptr inbounds nuw i8, ptr %1, i64 80
  %42 = load ptr, ptr %41, align 8
  %43 = getelementptr inbounds nuw i8, ptr %42, i64 57
  %44 = load i16, ptr %43, align 1
  %45 = and i16 %44, 8
  %46 = icmp eq i16 %45, 0
  %47 = icmp eq i8 %13, 0
  %or.cond = and i1 %47, %46
  br i1 %or.cond, label %48, label %87

48:                                               ; preds = %send_hci_summary_status_tap.exit
  %49 = and i16 %33, 4095
  %50 = zext nneg i16 %49 to i32
  call void @llvm.lifetime.start.p0(i64 80, ptr nonnull %6) #9
  call void @llvm.lifetime.start.p0(i64 4, ptr nonnull %7) #9
  call void @llvm.lifetime.start.p0(i64 4, ptr nonnull %8) #9
  call void @llvm.lifetime.start.p0(i64 4, ptr nonnull %9) #9
  call void @llvm.lifetime.start.p0(i64 4, ptr nonnull %10) #9
  %51 = load i32, ptr %3, align 8
  store i32 %51, ptr %7, align 4
  %52 = load i32, ptr %38, align 4
  store i32 %52, ptr %8, align 4
  store i32 %50, ptr %9, align 4
  %53 = getelementptr inbounds nuw i8, ptr %1, i64 20
  %54 = load i32, ptr %53, align 4
  store i32 %54, ptr %10, align 4
  store i32 1, ptr %6, align 16
  %55 = getelementptr inbounds nuw i8, ptr %6, i64 8
  store ptr %7, ptr %55, align 8
  %56 = getelementptr inbounds nuw i8, ptr %6, i64 16
  store i32 1, ptr %56, align 16
  %57 = getelementptr inbounds nuw i8, ptr %6, i64 24
  store ptr %8, ptr %57, align 8
  %58 = getelementptr inbounds nuw i8, ptr %6, i64 32
  store i32 1, ptr %58, align 16
  %59 = getelementptr inbounds nuw i8, ptr %6, i64 40
  store ptr %9, ptr %59, align 8
  %60 = getelementptr inbounds nuw i8, ptr %6, i64 48
  store i32 1, ptr %60, align 16
  %61 = getelementptr inbounds nuw i8, ptr %6, i64 56
  store ptr %10, ptr %61, align 8
  %62 = getelementptr inbounds nuw i8, ptr %6, i64 64
  store i32 0, ptr %62, align 16
  %63 = getelementptr inbounds nuw i8, ptr %6, i64 72
  store ptr null, ptr %63, align 8
  %64 = call ptr @wmem_file_scope()
  %65 = call noalias dereferenceable_or_null(16) ptr @wmem_alloc(ptr noundef %64, i64 noundef 16) #11
  %66 = load i32, ptr %3, align 8
  store i32 %66, ptr %65, align 4
  %67 = load i32, ptr %38, align 4
  %68 = getelementptr inbounds nuw i8, ptr %65, i64 4
  store i32 %67, ptr %68, align 4
  %69 = getelementptr inbounds nuw i8, ptr %65, i64 8
  store i16 %49, ptr %69, align 4
  %70 = getelementptr inbounds nuw i8, ptr %65, i64 10
  call void @llvm.memcpy.p0.p0.i64(ptr noundef nonnull align 1 dereferenceable(6) %70, ptr noundef nonnull align 1 dereferenceable(6) %5, i64 noundef 6, i1 noundef false) #9
  %71 = getelementptr inbounds nuw i8, ptr %3, i64 24
  %72 = load ptr, ptr %71, align 8
  call void @wmem_tree_insert32_array(ptr noundef %72, ptr noundef nonnull %6, ptr noundef %65)
  %73 = call ptr @wmem_file_scope()
  %74 = call noalias dereferenceable_or_null(12) ptr @wmem_alloc(ptr noundef %73, i64 noundef 12) #11
  %75 = load i32, ptr %10, align 4
  store i32 %75, ptr %74, align 4
  %76 = load i32, ptr @bluetooth_max_disconnect_in_frame, align 4
  %77 = getelementptr inbounds nuw i8, ptr %74, i64 4
  store i32 %76, ptr %77, align 4
  %78 = getelementptr inbounds nuw i8, ptr %74, i64 8
  store i32 1, ptr %78, align 4
  %79 = getelementptr inbounds nuw i8, ptr %3, i64 16
  %80 = load ptr, ptr %79, align 8
  call void @wmem_tree_insert32_array(ptr noundef %80, ptr noundef nonnull %6, ptr noundef %74)
  %81 = call ptr @wmem_file_scope()
  %82 = call noalias dereferenceable_or_null(8) ptr @wmem_alloc(ptr noundef %81, i64 noundef 8) #11
  store i32 0, ptr %82, align 4
  %83 = load i32, ptr %10, align 4
  %84 = getelementptr inbounds nuw i8, ptr %82, i64 4
  store i32 %83, ptr %84, align 4
  %85 = getelementptr inbounds nuw i8, ptr %3, i64 32
  %86 = load ptr, ptr %85, align 8
  call void @wmem_tree_insert32_array(ptr noundef %86, ptr noundef nonnull %6, ptr noundef %82)
  call void @llvm.lifetime.end.p0(i64 4, ptr nonnull %10) #9
  call void @llvm.lifetime.end.p0(i64 4, ptr nonnull %9) #9
  call void @llvm.lifetime.end.p0(i64 4, ptr nonnull %8) #9
  call void @llvm.lifetime.end.p0(i64 4, ptr nonnull %7) #9
  call void @llvm.lifetime.end.p0(i64 80, ptr nonnull %6) #9
  br label %87

87:                                               ; preds = %48, %send_hci_summary_status_tap.exit
  %88 = load i32, ptr @hf_bthci_evt_link_type, align 4
  %89 = call ptr @proto_tree_add_item(ptr noundef %2, i32 noundef %88, ptr noundef %0, i32 noundef %40, i32 noundef 1, i32 noundef -2147483648)
  %90 = add i32 %40, 1
  %91 = load i32, ptr @hf_bthci_evt_encryption_mode, align 4
  %92 = call ptr @proto_tree_add_item(ptr noundef %2, i32 noundef %91, ptr noundef %0, i32 noundef %90, i32 noundef 1, i32 noundef -2147483648)
  %93 = add i32 %40, 2
  call void @llvm.lifetime.end.p0(i64 6, ptr nonnull %5) #9
  ret i32 %93
}